; Function Attrs: nounwind uwtable
define internal fastcc void @Bbr_bddImagePrintLatchDependencyOne(ptr noundef %0, ptr noundef %1, ptr noundef %2, ptr noundef %3, i32 noundef %4) unnamed_addr #0 {
  %6 = tail call ptr @Cudd_Support(ptr noundef %0, ptr noundef %1) #11
  tail call void @Cudd_Ref(ptr noundef %6) #11
  %7 = tail call i32 (ptr, ...) @printf(ptr noundef nonnull dereferenceable(1) @.str.17, i32 noundef %4)
  %8 = getelementptr inbounds nuw i8, ptr %0, i64 136
  %9 = load i32, ptr %8, align 8, !tbaa !3
  %10 = icmp sgt i32 %9, 0
  br i1 %10, label %.lr.ph, label %._crit_edge

.lr.ph:                                           ; preds = %5
  %11 = getelementptr inbounds nuw i8, ptr %0, i64 344
  br label %12

12:                                               ; preds = %.lr.ph, %27
  %indvars.iv = phi i64 [ 0, %.lr.ph ], [ %indvars.iv.next, %27 ]
  %13 = load ptr, ptr %11, align 8, !tbaa !45
  %14 = getelementptr inbounds nuw ptr, ptr %13, i64 %indvars.iv
  %15 = load ptr, ptr %14, align 8, !tbaa !26
  %16 = tail call i32 @Cudd_bddLeq(ptr noundef nonnull %0, ptr noundef %6, ptr noundef %15) #11
  %.not = icmp eq i32 %16, 0
  br i1 %.not, label %27, label %17

17:                                               ; preds = %12
  %18 = load ptr, ptr %11, align 8, !tbaa !45
  %19 = getelementptr inbounds nuw ptr, ptr %18, i64 %indvars.iv
  %20 = load ptr, ptr %19, align 8, !tbaa !26
  %21 = tail call i32 @Cudd_bddLeq(ptr noundef nonnull %0, ptr noundef %2, ptr noundef %20) #11
  %.not21 = icmp eq i32 %21, 0
  br i1 %.not21, label %22, label %27

22:                                               ; preds = %17
  %23 = load ptr, ptr %11, align 8, !tbaa !45
  %24 = getelementptr inbounds nuw ptr, ptr %23, i64 %indvars.iv
  %25 = load ptr, ptr %24, align 8, !tbaa !26
  %26 = tail call i32 @Cudd_bddLeq(ptr noundef nonnull %0, ptr noundef %3, ptr noundef %25) #11
  %.not22 = icmp eq i32 %26, 0
  %. = select i1 %.not22, i32 105, i32 110
  br label %27

27:                                               ; preds = %12, %22, %17
  %.sink = phi i32 [ 99, %17 ], [ %., %22 ], [ 46, %12 ]
  %putchar20 = tail call i32 @putchar(i32 %.sink)
  %indvars.iv.next = add nuw nsw i64 %indvars.iv, 1
  %28 = load i32, ptr %8, align 8, !tbaa !3
  %29 = sext i32 %28 to i64
  %30 = icmp slt i64 %indvars.iv.next, %29
  br i1 %30, label %12, label %._crit_edge, !llvm.loop !98

._crit_edge:                                      ; preds = %27, %5
  %putchar = tail call i32 @putchar(i32 10)
  tail call void @Cudd_RecursiveDeref(ptr noundef nonnull %0, ptr noundef %6) #11
  ret void
}